; ModuleID = '30/1135.c'
source_filename = "30/1135.c"
target datalayout = "e-m:e-p270:32:32-p271:32:32-p272:64:64-i64:64-f80:128-n8:16:32:64-S128"
target triple = "x86_64-pc-linux-gnu"

@.str = private unnamed_addr constant [3 x i8] c"%d\00", align 1

; Function Attrs: noinline nounwind uwtable
define dso_local i32 @main() #0 {
  %1 = alloca i32, align 4
  %2 = alloca i32, align 4
  %3 = alloca i32, align 4
  %4 = alloca i32, align 4
  store i32 0, i32* %1, align 4
  store i32 0, i32* %4, align 4
  %5 = call i32 (i8*, ...) @__isoc99_scanf(i8* getelementptr inbounds ([3 x i8], [3 x i8]* @.str, i64 0, i64 0), i32* %3)
  store i32 1, i32* %2, align 4
  br label %6

6:                                                ; preds = %40, %0
  %7 = load i32, i32* %2, align 4
  %8 = load i32, i32* %3, align 4
  %9 = icmp sle i32 %7, %8
  br i1 %9, label %10, label %43

10:                                               ; preds = %6
  %11 = load i32, i32* %2, align 4
  %12 = srem i32 %11, 7
  %13 = icmp eq i32 %12, 0
  br i1 %13, label %14, label %16

14:                                               ; preds = %10
  %15 = load i32, i32* %4, align 4
  store i32 %15, i32* %4, align 4
  br label %39

16:                                               ; preds = %10
  %17 = load i32, i32* %2, align 4
  %18 = srem i32 %17, 10
  %19 = icmp eq i32 %18, 7
  br i1 %19, label %20, label %22

20:                                               ; preds = %16
  %21 = load i32, i32* %4, align 4
  store i32 %21, i32* %4, align 4
  br label %38

22:                                               ; preds = %16
  %23 = load i32, i32* %2, align 4
  %24 = load i32, i32* %2, align 4
  %25 = srem i32 %24, 10
  %26 = sub nsw i32 %23, %25
  %27 = sdiv i32 %26, 10
  %28 = icmp eq i32 %27, 7
  br i1 %28, label %29, label %31

29:                                               ; preds = %22
  %30 = load i32, i32* %4, align 4
  store i32 %30, i32* %4, align 4
  br label %37

31:                                               ; preds = %22
  %32 = load i32, i32* %4, align 4
  %33 = load i32, i32* %2, align 4
  %34 = load i32, i32* %2, align 4
  %35 = mul nsw i32 %33, %34
  %36 = add nsw i32 %32, %35
  store i32 %36, i32* %4, align 4
  br label %37

37:                                               ; preds = %31, %29
  br label %38

38:                                               ; preds = %37, %20
  br label %39

39:                                               ; preds = %38, %14
  br label %40

40:                                               ; preds = %39
  %41 = load i32, i32* %2, align 4
  %42 = add nsw i32 %41, 1
  store i32 %42, i32* %2, align 4
  br label %6

43:                                               ; preds = %6
  %44 = load i32, i32* %4, align 4
  %45 = call i32 (i8*, ...) @printf(i8* getelementptr inbounds ([3 x i8], [3 x i8]* @.str, i64 0, i64 0), i32 %44)
  ret i32 0
}

declare dso_local i32 @__isoc99_scanf(i8*, ...) #1

declare dso_local i32 @printf(i8*, ...) #1


!llvm.module.flags = !{!0}
!llvm.ident = !{!1}

!0 = !{i32 1, !"wchar_size", i32 4}
!1 = !{!"clang version 10.0.0-4ubuntu1 "}
